target datalayout = "e-m:e-p270:32:32-p271:32:32-p272:64:64-i64:64-i128:128-f80:128-n8:16:32:64-S128"
target triple = "x86_64-unknown-linux-gnu"

%struct.Range = type { i64, i64 }

@.str.57 = private unnamed_addr constant [23 x i8] c"!range_is_empty(range)\00", align 1
@.str.58 = private unnamed_addr constant [99 x i8] c"/home/dtcxzyw/WorkSpace/Projects/compilers/llvm-opt-benchmark/bench/qemu/qemu/include/qemu/range.h\00", align 1
@.str.59 = private unnamed_addr constant [57 x i8] c"range->lob <= range->upb || range->lob == range->upb + 1\00", align 1
@__PRETTY_FUNCTION__.range_invariant = private unnamed_addr constant [36 x i8] c"void range_invariant(const Range *)\00", align 1
@__PRETTY_FUNCTION__.range_set_bounds = private unnamed_addr constant [51 x i8] c"void range_set_bounds(Range *, uint64_t, uint64_t)\00", align 1

; Function Attrs: nounwind sspstrong uwtable
define internal void @range_invariant(ptr noundef %range) #0 {
entry:
  %range.addr = alloca ptr, align 8
  store ptr %range, ptr %range.addr, align 8
  %0 = load ptr, ptr %range.addr, align 8
  %lob = getelementptr inbounds %struct.Range, ptr %0, i32 0, i32 0
  %1 = load i64, ptr %lob, align 8
  %2 = load ptr, ptr %range.addr, align 8
  %upb = getelementptr inbounds %struct.Range, ptr %2, i32 0, i32 1
  %3 = load i64, ptr %upb, align 8
  %cmp = icmp ule i64 %1, %3
  br i1 %cmp, label %if.then, label %lor.lhs.false

lor.lhs.false:                                    ; preds = %entry
  %4 = load ptr, ptr %range.addr, align 8
  %lob1 = getelementptr inbounds %struct.Range, ptr %4, i32 0, i32 0
  %5 = load i64, ptr %lob1, align 8
  %6 = load ptr, ptr %range.addr, align 8
  %upb2 = getelementptr inbounds %struct.Range, ptr %6, i32 0, i32 1
  %7 = load i64, ptr %upb2, align 8
  %add = add i64 %7, 1
  %cmp3 = icmp eq i64 %5, %add
  br i1 %cmp3, label %if.then, label %if.else

if.then:                                          ; preds = %lor.lhs.false, %entry
  br label %if.end

if.else:                                          ; preds = %lor.lhs.false
  call void @__assert_fail(ptr noundef @.str.59, ptr noundef @.str.58, i32 noundef 41, ptr noundef @__PRETTY_FUNCTION__.range_invariant) #9
  unreachable

if.end:                                           ; preds = %if.then
  ret void
}

; Function Attrs: nounwind sspstrong uwtable
define internal zeroext i1 @range_is_empty(ptr noundef %range) #0 {
entry:
  %range.addr = alloca ptr, align 8
  store ptr %range, ptr %range.addr, align 8
  %0 = load ptr, ptr %range.addr, align 8
  call void @range_invariant(ptr noundef %0)
  %1 = load ptr, ptr %range.addr, align 8
  %lob = getelementptr inbounds %struct.Range, ptr %1, i32 0, i32 0
  %2 = load i64, ptr %lob, align 8
  %3 = load ptr, ptr %range.addr, align 8
  %upb = getelementptr inbounds %struct.Range, ptr %3, i32 0, i32 1
  %4 = load i64, ptr %upb, align 8
  %cmp = icmp ugt i64 %2, %4
  ret i1 %cmp
}

; Function Attrs: nounwind sspstrong uwtable
define internal void @range_set_bounds(ptr noundef %range, i64 noundef %lob, i64 noundef %upb) #0 {
entry:
  %range.addr = alloca ptr, align 8
  %lob.addr = alloca i64, align 8
  %upb.addr = alloca i64, align 8
  store ptr %range, ptr %range.addr, align 8
  store i64 %lob, ptr %lob.addr, align 8
  store i64 %upb, ptr %upb.addr, align 8
  %0 = load i64, ptr %lob.addr, align 8
  %1 = load ptr, ptr %range.addr, align 8
  %lob1 = getelementptr inbounds %struct.Range, ptr %1, i32 0, i32 0
  store i64 %0, ptr %lob1, align 8
  %2 = load i64, ptr %upb.addr, align 8
  %3 = load ptr, ptr %range.addr, align 8
  %upb2 = getelementptr inbounds %struct.Range, ptr %3, i32 0, i32 1
  store i64 %2, ptr %upb2, align 8
  %4 = load ptr, ptr %range.addr, align 8
  %call = call zeroext i1 @range_is_empty(ptr noundef %4)
  br i1 %call, label %if.else, label %if.then

if.then:                                          ; preds = %entry
  br label %if.end

if.else:                                          ; preds = %entry
  call void @__assert_fail(ptr noundef @.str.57, ptr noundef @.str.58, i32 noundef 77, ptr noundef @__PRETTY_FUNCTION__.range_set_bounds) #9
  unreachable

if.end:                                           ; preds = %if.then
  ret void
}