; Function Attrs: nounwind sspstrong uwtable
define internal fastcc void @range_set_bounds(ptr noundef writeonly captures(none) initializes((0, 16)) %range, i64 noundef %lob, i64 noundef %upb) unnamed_addr #0 {
entry:
  store i64 %lob, ptr %range, align 8
  %upb2 = getelementptr inbounds nuw i8, ptr %range, i64 8
  store i64 %upb, ptr %upb2, align 8
  %cmp.not.i.i = icmp ule i64 %lob, %upb
  %add.i.i = add i64 %upb, 1
  %cmp3.i.i = icmp eq i64 %lob, %add.i.i
  %or.cond.i.i = or i1 %cmp.not.i.i, %cmp3.i.i
  br i1 %or.cond.i.i, label %range_is_empty.exit, label %if.else.i.i

if.else.i.i:                                      ; preds = %entry
  tail call void @__assert_fail(ptr noundef nonnull @.str.59, ptr noundef nonnull @.str.58, i32 noundef 41, ptr noundef nonnull @__PRETTY_FUNCTION__.range_invariant) #12
  unreachable

range_is_empty.exit:                              ; preds = %entry
  %cmp.i = icmp ugt i64 %lob, %upb
  br i1 %cmp.i, label %if.else, label %if.end

if.else:                                          ; preds = %range_is_empty.exit
  tail call void @__assert_fail(ptr noundef nonnull @.str.57, ptr noundef nonnull @.str.58, i32 noundef 77, ptr noundef nonnull @__PRETTY_FUNCTION__.range_set_bounds) #12
  unreachable

if.end:                                           ; preds = %range_is_empty.exit
  ret void
}